target datalayout = "e-m:e-p270:32:32-p271:32:32-p272:64:64-i64:64-i128:128-f80:128-n8:16:32:64-S128"
target triple = "x86_64-pc-linux-gnu"

%struct.expert_field = type { i32, i32 }
%struct.nstime_t = type { i64, i32 }

@hf_uftp_destlist = internal global i32 0, align 4
@hf_uftp_dest = internal global i32 0, align 4
@hf_uftp_register = internal global i32 0, align 4
@hf_uftp_register_func = internal global i32 0, align 4
@hf_uftp_register_hlen = internal global i32 0, align 4
@hf_uftp_register_dhlen = internal global i32 0, align 4
@hf_uftp_register_tstamp = internal global i32 0, align 4
@hf_uftp_register_rand2 = internal global i32 0, align 4
@hf_uftp_register_dhkey = internal global i32 0, align 4
@ett_uftp_register = internal global i32 0, align 4
@ett_uftp_destlist = internal global i32 0, align 4
@ei_uftp_length_invalid = internal global %struct.expert_field zeroinitializer, align 4
@.str.416 = private unnamed_addr constant [19 x i8] c"Invalid length: %d\00", align 1
@.str.418 = private unnamed_addr constant [14 x i8] c"%d bytes (%d)\00", align 1
@.str.421 = private unnamed_addr constant [49 x i8] c"Invalid length, len = %d, hlen = %d, keylen = %d\00", align 1

; Function Attrs: nounwind null_pointer_is_valid sspstrong uwtable
define internal { i64, i32 } @usec_to_nstime(i64 noundef %0) #3 {
  %2 = alloca %struct.nstime_t, align 8
  %3 = alloca i64, align 8
  store i64 %0, ptr %3, align 8
  %4 = load i64, ptr %3, align 8
  %5 = udiv i64 %4, 1000000
  %6 = getelementptr inbounds nuw %struct.nstime_t, ptr %2, i32 0, i32 0
  store i64 %5, ptr %6, align 8
  %7 = load i64, ptr %3, align 8
  %8 = urem i64 %7, 1000000
  %9 = mul i64 %8, 1000
  %10 = trunc i64 %9 to i32
  %11 = getelementptr inbounds nuw %struct.nstime_t, ptr %2, i32 0, i32 1
  store i32 %10, ptr %11, align 8
  %12 = load { i64, i32 }, ptr %2, align 8
  ret { i64, i32 } %12
}

; Function Attrs: null_pointer_is_valid sspstrong uwtable
define internal void @dissect_uftp_register(ptr noundef %0, ptr noundef %1, ptr noundef %2) #0 {
  %4 = alloca ptr, align 8
  %5 = alloca ptr, align 8
  %6 = alloca ptr, align 8
  %7 = alloca ptr, align 8
  %8 = alloca ptr, align 8
  %9 = alloca ptr, align 8
  %10 = alloca ptr, align 8
  %11 = alloca i32, align 4
  %12 = alloca i32, align 4
  %13 = alloca i16, align 2
  %14 = alloca i16, align 2
  %15 = alloca i16, align 2
  %16 = alloca %struct.nstime_t, align 8
  %17 = alloca i32, align 4
  %18 = alloca %struct.nstime_t, align 8
  store ptr %0, ptr %4, align 8
  store ptr %1, ptr %5, align 8
  store ptr %2, ptr %6, align 8
  call void @llvm.lifetime.start.p0(i64 8, ptr %7) #6
  store ptr null, ptr %7, align 8
  call void @llvm.lifetime.start.p0(i64 8, ptr %8) #6
  store ptr null, ptr %8, align 8
  call void @llvm.lifetime.start.p0(i64 8, ptr %9) #6
  store ptr null, ptr %9, align 8
  call void @llvm.lifetime.start.p0(i64 8, ptr %10) #6
  store ptr null, ptr %10, align 8
  call void @llvm.lifetime.start.p0(i64 4, ptr %11) #6
  store i32 0, ptr %11, align 4
  call void @llvm.lifetime.start.p0(i64 4, ptr %12) #6
  call void @llvm.lifetime.start.p0(i64 2, ptr %13) #6
  call void @llvm.lifetime.start.p0(i64 2, ptr %14) #6
  call void @llvm.lifetime.start.p0(i64 2, ptr %15) #6
  call void @llvm.lifetime.start.p0(i64 16, ptr %16) #6
  %19 = load ptr, ptr %4, align 8
  %20 = call i32 @tvb_reported_length(ptr noundef %19)
  %21 = icmp ult i32 %20, 44
  br i1 %21, label %22, label %30

22:                                               ; preds = %3
  %23 = load ptr, ptr %6, align 8
  %24 = load ptr, ptr %5, align 8
  %25 = load ptr, ptr %4, align 8
  %26 = load i32, ptr %11, align 4
  %27 = load ptr, ptr %4, align 8
  %28 = call i32 @tvb_reported_length(ptr noundef %27)
  %29 = call ptr (ptr, ptr, ptr, ptr, i32, i32, ptr, ...) @proto_tree_add_expert_format(ptr noundef %23, ptr noundef %24, ptr noundef @ei_uftp_length_invalid, ptr noundef %25, i32 noundef %26, i32 noundef -1, ptr noundef @.str.416, i32 noundef %28)
  store i32 1, ptr %17, align 4
  br label %167

30:                                               ; preds = %3
  %31 = load ptr, ptr %4, align 8
  %32 = call zeroext i8 @tvb_get_uint8(ptr noundef %31, i32 noundef 1)
  %33 = zext i8 %32 to i32
  %34 = mul i32 %33, 4
  store i32 %34, ptr %12, align 4
  %35 = load ptr, ptr %4, align 8
  %36 = call zeroext i16 @tvb_get_ntohs(ptr noundef %35, i32 noundef 2)
  store i16 %36, ptr %14, align 2
  %37 = load ptr, ptr %4, align 8
  %38 = call i32 @tvb_reported_length(ptr noundef %37)
  %39 = load i32, ptr %12, align 4
  %40 = icmp slt i32 %38, %39
  br i1 %40, label %47, label %41

41:                                               ; preds = %30
  %42 = load i32, ptr %12, align 4
  %43 = load i16, ptr %14, align 2
  %44 = zext i16 %43 to i32
  %45 = add i32 44, %44
  %46 = icmp slt i32 %42, %45
  br i1 %46, label %47, label %58

47:                                               ; preds = %41, %30
  %48 = load ptr, ptr %6, align 8
  %49 = load ptr, ptr %5, align 8
  %50 = load ptr, ptr %4, align 8
  %51 = load i32, ptr %11, align 4
  %52 = load ptr, ptr %4, align 8
  %53 = call i32 @tvb_reported_length(ptr noundef %52)
  %54 = load i32, ptr %12, align 4
  %55 = load i16, ptr %14, align 2
  %56 = zext i16 %55 to i32
  %57 = call ptr (ptr, ptr, ptr, ptr, i32, i32, ptr, ...) @proto_tree_add_expert_format(ptr noundef %48, ptr noundef %49, ptr noundef @ei_uftp_length_invalid, ptr noundef %50, i32 noundef %51, i32 noundef -1, ptr noundef @.str.421, i32 noundef %53, i32 noundef %54, i32 noundef %56)
  store i32 1, ptr %17, align 4
  br label %167

58:                                               ; preds = %41
  %59 = load ptr, ptr %6, align 8
  %60 = load i32, ptr @hf_uftp_register, align 4
  %61 = load ptr, ptr %4, align 8
  %62 = load i32, ptr %11, align 4
  %63 = call ptr @proto_tree_add_item(ptr noundef %59, i32 noundef %60, ptr noundef %61, i32 noundef %62, i32 noundef -1, i32 noundef 0)
  store ptr %63, ptr %7, align 8
  %64 = load ptr, ptr %7, align 8
  %65 = load i32, ptr @ett_uftp_register, align 4
  %66 = call ptr @proto_item_add_subtree(ptr noundef %64, i32 noundef %65)
  store ptr %66, ptr %9, align 8
  %67 = load ptr, ptr %9, align 8
  %68 = load i32, ptr @hf_uftp_register_func, align 4
  %69 = load ptr, ptr %4, align 8
  %70 = load i32, ptr %11, align 4
  %71 = call ptr @proto_tree_add_item(ptr noundef %67, i32 noundef %68, ptr noundef %69, i32 noundef %70, i32 noundef 1, i32 noundef 0)
  %72 = load i32, ptr %11, align 4
  %73 = add i32 %72, 1
  store i32 %73, ptr %11, align 4
  %74 = load ptr, ptr %9, align 8
  %75 = load i32, ptr @hf_uftp_register_hlen, align 4
  %76 = load ptr, ptr %4, align 8
  %77 = load i32, ptr %11, align 4
  %78 = load i32, ptr %12, align 4
  %79 = load i32, ptr %12, align 4
  %80 = load i32, ptr %12, align 4
  %81 = sdiv i32 %80, 4
  %82 = call ptr (ptr, i32, ptr, i32, i32, i32, ptr, ...) @proto_tree_add_uint_format_value(ptr noundef %74, i32 noundef %75, ptr noundef %76, i32 noundef %77, i32 noundef 1, i32 noundef %78, ptr noundef @.str.418, i32 noundef %79, i32 noundef %81)
  %83 = load i32, ptr %11, align 4
  %84 = add i32 %83, 1
  store i32 %84, ptr %11, align 4
  %85 = load ptr, ptr %9, align 8
  %86 = load i32, ptr @hf_uftp_register_dhlen, align 4
  %87 = load ptr, ptr %4, align 8
  %88 = load i32, ptr %11, align 4
  %89 = call ptr @proto_tree_add_item(ptr noundef %85, i32 noundef %86, ptr noundef %87, i32 noundef %88, i32 noundef 2, i32 noundef 0)
  %90 = load i32, ptr %11, align 4
  %91 = add i32 %90, 2
  store i32 %91, ptr %11, align 4
  call void @llvm.lifetime.start.p0(i64 16, ptr %18) #6
  %92 = load ptr, ptr %4, align 8
  %93 = load i32, ptr %11, align 4
  %94 = call i64 @tvb_get_ntoh64(ptr noundef %92, i32 noundef %93)
  %95 = call { i64, i32 } @usec_to_nstime(i64 noundef %94)
  %96 = getelementptr inbounds nuw { i64, i32 }, ptr %18, i32 0, i32 0
  %97 = extractvalue { i64, i32 } %95, 0
  store i64 %97, ptr %96, align 8
  %98 = getelementptr inbounds nuw { i64, i32 }, ptr %18, i32 0, i32 1
  %99 = extractvalue { i64, i32 } %95, 1
  store i32 %99, ptr %98, align 8
  call void @llvm.memcpy.p0.p0.i64(ptr align 8 %16, ptr align 8 %18, i64 16, i1 false)
  call void @llvm.lifetime.end.p0(i64 16, ptr %18) #6
  %100 = load ptr, ptr %9, align 8
  %101 = load i32, ptr @hf_uftp_register_tstamp, align 4
  %102 = load ptr, ptr %4, align 8
  %103 = load i32, ptr %11, align 4
  %104 = call ptr @proto_tree_add_time(ptr noundef %100, i32 noundef %101, ptr noundef %102, i32 noundef %103, i32 noundef 8, ptr noundef %16)
  %105 = load i32, ptr %11, align 4
  %106 = add i32 %105, 8
  store i32 %106, ptr %11, align 4
  %107 = load ptr, ptr %9, align 8
  %108 = load i32, ptr @hf_uftp_register_rand2, align 4
  %109 = load ptr, ptr %4, align 8
  %110 = load i32, ptr %11, align 4
  %111 = call ptr @proto_tree_add_item(ptr noundef %107, i32 noundef %108, ptr noundef %109, i32 noundef %110, i32 noundef 32, i32 noundef 0)
  %112 = load i32, ptr %11, align 4
  %113 = add i32 %112, 32
  store i32 %113, ptr %11, align 4
  %114 = load i16, ptr %14, align 2
  %115 = zext i16 %114 to i32
  %116 = icmp sgt i32 %115, 0
  br i1 %116, label %117, label %125

117:                                              ; preds = %58
  %118 = load ptr, ptr %9, align 8
  %119 = load i32, ptr @hf_uftp_register_dhkey, align 4
  %120 = load ptr, ptr %4, align 8
  %121 = load i32, ptr %11, align 4
  %122 = load i16, ptr %14, align 2
  %123 = zext i16 %122 to i32
  %124 = call ptr @proto_tree_add_item(ptr noundef %118, i32 noundef %119, ptr noundef %120, i32 noundef %121, i32 noundef %123, i32 noundef 0)
  br label %125

125:                                              ; preds = %117, %58
  %126 = load ptr, ptr %4, align 8
  %127 = call i32 @tvb_reported_length(ptr noundef %126)
  %128 = load i32, ptr %12, align 4
  %129 = sub i32 %127, %128
  %130 = udiv i32 %129, 4
  %131 = trunc i32 %130 to i16
  store i16 %131, ptr %13, align 2
  %132 = load i32, ptr %12, align 4
  store i32 %132, ptr %11, align 4
  %133 = load i16, ptr %13, align 2
  %134 = zext i16 %133 to i32
  %135 = icmp sgt i32 %134, 0
  br i1 %135, label %136, label %148

136:                                              ; preds = %125
  %137 = load ptr, ptr %9, align 8
  %138 = load i32, ptr @hf_uftp_destlist, align 4
  %139 = load ptr, ptr %4, align 8
  %140 = load i32, ptr %11, align 4
  %141 = load i16, ptr %13, align 2
  %142 = zext i16 %141 to i32
  %143 = mul i32 %142, 4
  %144 = call ptr @proto_tree_add_item(ptr noundef %137, i32 noundef %138, ptr noundef %139, i32 noundef %140, i32 noundef %143, i32 noundef 0)
  store ptr %144, ptr %8, align 8
  %145 = load ptr, ptr %8, align 8
  %146 = load i32, ptr @ett_uftp_destlist, align 4
  %147 = call ptr @proto_item_add_subtree(ptr noundef %145, i32 noundef %146)
  store ptr %147, ptr %10, align 8
  br label %148

148:                                              ; preds = %136, %125
  store i16 0, ptr %15, align 2
  br label %149

149:                                              ; preds = %163, %148
  %150 = load i16, ptr %15, align 2
  %151 = zext i16 %150 to i32
  %152 = load i16, ptr %13, align 2
  %153 = zext i16 %152 to i32
  %154 = icmp slt i32 %151, %153
  br i1 %154, label %155, label %166

155:                                              ; preds = %149
  %156 = load ptr, ptr %10, align 8
  %157 = load i32, ptr @hf_uftp_dest, align 4
  %158 = load ptr, ptr %4, align 8
  %159 = load i32, ptr %11, align 4
  %160 = call ptr @proto_tree_add_item(ptr noundef %156, i32 noundef %157, ptr noundef %158, i32 noundef %159, i32 noundef 4, i32 noundef 0)
  %161 = load i32, ptr %11, align 4
  %162 = add i32 %161, 4
  store i32 %162, ptr %11, align 4
  br label %163

163:                                              ; preds = %155
  %164 = load i16, ptr %15, align 2
  %165 = add i16 %164, 1
  store i16 %165, ptr %15, align 2
  br label %149, !llvm.loop !10

166:                                              ; preds = %149
  store i32 0, ptr %17, align 4
  br label %167

167:                                              ; preds = %166, %47, %22
  call void @llvm.lifetime.end.p0(i64 16, ptr %16) #6
  call void @llvm.lifetime.end.p0(i64 2, ptr %15) #6
  call void @llvm.lifetime.end.p0(i64 2, ptr %14) #6
  call void @llvm.lifetime.end.p0(i64 2, ptr %13) #6
  call void @llvm.lifetime.end.p0(i64 4, ptr %12) #6
  call void @llvm.lifetime.end.p0(i64 4, ptr %11) #6
  call void @llvm.lifetime.end.p0(i64 8, ptr %10) #6
  call void @llvm.lifetime.end.p0(i64 8, ptr %9) #6
  call void @llvm.lifetime.end.p0(i64 8, ptr %8) #6
  call void @llvm.lifetime.end.p0(i64 8, ptr %7) #6
  %168 = load i32, ptr %17, align 4
  switch i32 %168, label %170 [
    i32 0, label %169
    i32 1, label %169
  ]

169:                                              ; preds = %167, %167
  ret void

170:                                              ; preds = %167
  unreachable
}