; Function Attrs: null_pointer_is_valid sspstrong uwtable
define internal fastcc void @dissect_uftp_register(ptr noundef %0, ptr noundef %1, ptr noundef %2) unnamed_addr #0 {
  %4 = alloca %struct.nstime_t, align 8
  call void @llvm.lifetime.start.p0(i64 16, ptr nonnull %4) #5
  %5 = tail call i32 @tvb_reported_length(ptr noundef %0)
  %6 = icmp ult i32 %5, 44
  br i1 %6, label %7, label %10

7:                                                ; preds = %3
  %8 = tail call i32 @tvb_reported_length(ptr noundef %0)
  %9 = tail call ptr (ptr, ptr, ptr, ptr, i32, i32, ptr, ...) @proto_tree_add_expert_format(ptr noundef %2, ptr noundef %1, ptr noundef nonnull @ei_uftp_length_invalid, ptr noundef %0, i32 noundef 0, i32 noundef -1, ptr noundef nonnull @.str.416, i32 noundef %8)
  br label %.loopexit

10:                                               ; preds = %3
  %11 = tail call zeroext i8 @tvb_get_uint8(ptr noundef %0, i32 noundef 1)
  %12 = zext i8 %11 to i32
  %13 = shl nuw nsw i32 %12, 2
  %14 = tail call zeroext i16 @tvb_get_ntohs(ptr noundef %0, i32 noundef 2)
  %15 = tail call i32 @tvb_reported_length(ptr noundef %0)
  %16 = icmp slt i32 %15, %13
  %.pre = zext i16 %14 to i32
  %17 = add nuw nsw i32 %.pre, 44
  %18 = icmp samesign ult i32 %13, %17
  %or.cond = select i1 %16, i1 true, i1 %18
  br i1 %or.cond, label %._crit_edge, label %21

._crit_edge:                                      ; preds = %10
  %19 = tail call i32 @tvb_reported_length(ptr noundef %0)
  %20 = tail call ptr (ptr, ptr, ptr, ptr, i32, i32, ptr, ...) @proto_tree_add_expert_format(ptr noundef %2, ptr noundef %1, ptr noundef nonnull @ei_uftp_length_invalid, ptr noundef %0, i32 noundef 0, i32 noundef -1, ptr noundef nonnull @.str.421, i32 noundef %19, i32 noundef %13, i32 noundef %.pre)
  br label %.loopexit

21:                                               ; preds = %10
  %22 = load i32, ptr @hf_uftp_register, align 4
  %23 = tail call ptr @proto_tree_add_item(ptr noundef %2, i32 noundef %22, ptr noundef %0, i32 noundef 0, i32 noundef -1, i32 noundef 0)
  %24 = load i32, ptr @ett_uftp_register, align 4
  %25 = tail call ptr @proto_item_add_subtree(ptr noundef %23, i32 noundef %24)
  %26 = load i32, ptr @hf_uftp_register_func, align 4
  %27 = tail call ptr @proto_tree_add_item(ptr noundef %25, i32 noundef %26, ptr noundef %0, i32 noundef 0, i32 noundef 1, i32 noundef 0)
  %28 = load i32, ptr @hf_uftp_register_hlen, align 4
  %29 = tail call ptr (ptr, i32, ptr, i32, i32, i32, ptr, ...) @proto_tree_add_uint_format_value(ptr noundef %25, i32 noundef %28, ptr noundef %0, i32 noundef 1, i32 noundef 1, i32 noundef %13, ptr noundef nonnull @.str.418, i32 noundef %13, i32 noundef %12)
  %30 = load i32, ptr @hf_uftp_register_dhlen, align 4
  %31 = tail call ptr @proto_tree_add_item(ptr noundef %25, i32 noundef %30, ptr noundef %0, i32 noundef 2, i32 noundef 2, i32 noundef 0)
  %32 = tail call i64 @tvb_get_ntoh64(ptr noundef %0, i32 noundef 4)
  %33 = udiv i64 %32, 1000000
  %34 = urem i64 %32, 1000000
  %35 = trunc nuw nsw i64 %34 to i32
  %36 = mul nuw nsw i32 %35, 1000
  store i64 %33, ptr %4, align 8
  %.sroa.4.0..sroa_idx = getelementptr inbounds nuw i8, ptr %4, i64 8
  store i32 %36, ptr %.sroa.4.0..sroa_idx, align 8
  %37 = load i32, ptr @hf_uftp_register_tstamp, align 4
  %38 = call ptr @proto_tree_add_time(ptr noundef %25, i32 noundef %37, ptr noundef %0, i32 noundef 4, i32 noundef 8, ptr noundef nonnull %4)
  %39 = load i32, ptr @hf_uftp_register_rand2, align 4
  %40 = call ptr @proto_tree_add_item(ptr noundef %25, i32 noundef %39, ptr noundef %0, i32 noundef 12, i32 noundef 32, i32 noundef 0)
  %.not = icmp eq i16 %14, 0
  br i1 %.not, label %44, label %41

41:                                               ; preds = %21
  %42 = load i32, ptr @hf_uftp_register_dhkey, align 4
  %43 = call ptr @proto_tree_add_item(ptr noundef %25, i32 noundef %42, ptr noundef %0, i32 noundef 44, i32 noundef %.pre, i32 noundef 0)
  br label %44

44:                                               ; preds = %41, %21
  %45 = call i32 @tvb_reported_length(ptr noundef %0)
  %46 = sub i32 %45, %13
  %47 = lshr i32 %46, 2
  %48 = and i32 %47, 65535
  %.not73 = icmp eq i32 %48, 0
  br i1 %.not73, label %.loopexit, label %.lr.ph.preheader

.lr.ph.preheader:                                 ; preds = %44
  %49 = load i32, ptr @hf_uftp_destlist, align 4
  %50 = shl nuw nsw i32 %48, 2
  %51 = call ptr @proto_tree_add_item(ptr noundef %25, i32 noundef %49, ptr noundef %0, i32 noundef %13, i32 noundef %50, i32 noundef 0)
  %52 = load i32, ptr @ett_uftp_destlist, align 4
  %53 = call ptr @proto_item_add_subtree(ptr noundef %51, i32 noundef %52)
  br label %.lr.ph

.lr.ph:                                           ; preds = %.lr.ph.preheader, %.lr.ph
  %indvars.iv = phi i32 [ 0, %.lr.ph.preheader ], [ %indvars.iv.next, %.lr.ph ]
  %.06974 = phi i32 [ %13, %.lr.ph.preheader ], [ %56, %.lr.ph ]
  %54 = load i32, ptr @hf_uftp_dest, align 4
  %55 = call ptr @proto_tree_add_item(ptr noundef %53, i32 noundef %54, ptr noundef %0, i32 noundef %.06974, i32 noundef 4, i32 noundef 0)
  %56 = add nuw nsw i32 %.06974, 4
  %indvars.iv.next = add nuw nsw i32 %indvars.iv, 1
  %exitcond.not = icmp eq i32 %indvars.iv.next, %48
  br i1 %exitcond.not, label %.loopexit, label %.lr.ph, !llvm.loop !9

.loopexit:                                        ; preds = %.lr.ph, %44, %._crit_edge, %7
  call void @llvm.lifetime.end.p0(i64 16, ptr nonnull %4) #5
  ret void
}